target datalayout = "e-m:e-p270:32:32-p271:32:32-p272:64:64-i64:64-i128:128-f80:128-n8:16:32:64-S128"
target triple = "x86_64-pc-linux-gnu"

%struct.prio_queue = type { ptr, i64, ptr, i64, i64, ptr }
%struct.topo_walk_info = type { i64, %struct.prio_queue, %struct.prio_queue, %struct.prio_queue, %struct.indegree_slab, %struct.author_date_slab }
%struct.indegree_slab = type { i32, i32, i32, ptr }
%struct.author_date_slab = type { i32, i32, i32, ptr }

; Function Attrs: nounwind uwtable
define internal void @clear_author_date_slab(ptr noundef %0) #0 {
  %2 = alloca ptr, align 8
  %3 = alloca i32, align 4
  store ptr %0, ptr %2, align 8, !tbaa !444
  call void @llvm.lifetime.start.p0(i64 4, ptr %3) #12
  store i32 0, ptr %3, align 4, !tbaa !9
  br label %4

4:                                                ; preds = %18, %1
  %5 = load i32, ptr %3, align 4, !tbaa !9
  %6 = load ptr, ptr %2, align 8, !tbaa !444
  %7 = getelementptr inbounds nuw %struct.author_date_slab, ptr %6, i32 0, i32 2
  %8 = load i32, ptr %7, align 8, !tbaa !446
  %9 = icmp ult i32 %5, %8
  br i1 %9, label %10, label %21

10:                                               ; preds = %4
  %11 = load ptr, ptr %2, align 8, !tbaa !444
  %12 = getelementptr inbounds nuw %struct.author_date_slab, ptr %11, i32 0, i32 3
  %13 = load ptr, ptr %12, align 8, !tbaa !447
  %14 = load i32, ptr %3, align 4, !tbaa !9
  %15 = zext i32 %14 to i64
  %16 = getelementptr inbounds nuw ptr, ptr %13, i64 %15
  %17 = load ptr, ptr %16, align 8, !tbaa !448
  call void @free(ptr noundef %17) #12
  br label %18

18:                                               ; preds = %10
  %19 = load i32, ptr %3, align 4, !tbaa !9
  %20 = add i32 %19, 1
  store i32 %20, ptr %3, align 4, !tbaa !9
  br label %4, !llvm.loop !450

21:                                               ; preds = %4
  %22 = load ptr, ptr %2, align 8, !tbaa !444
  %23 = getelementptr inbounds nuw %struct.author_date_slab, ptr %22, i32 0, i32 2
  store i32 0, ptr %23, align 8, !tbaa !446
  br label %24

24:                                               ; preds = %21
  %25 = load ptr, ptr %2, align 8, !tbaa !444
  %26 = getelementptr inbounds nuw %struct.author_date_slab, ptr %25, i32 0, i32 3
  %27 = load ptr, ptr %26, align 8, !tbaa !447
  call void @free(ptr noundef %27) #12
  %28 = load ptr, ptr %2, align 8, !tbaa !444
  %29 = getelementptr inbounds nuw %struct.author_date_slab, ptr %28, i32 0, i32 3
  store ptr null, ptr %29, align 8, !tbaa !447
  br label %30

30:                                               ; preds = %24
  br label %31

31:                                               ; preds = %30
  call void @llvm.lifetime.end.p0(i64 4, ptr %3) #12
  ret void
}

; Function Attrs: nounwind uwtable
define internal void @clear_indegree_slab(ptr noundef %0) #0 {
  %2 = alloca ptr, align 8
  %3 = alloca i32, align 4
  store ptr %0, ptr %2, align 8, !tbaa !439
  call void @llvm.lifetime.start.p0(i64 4, ptr %3) #12
  store i32 0, ptr %3, align 4, !tbaa !9
  br label %4

4:                                                ; preds = %18, %1
  %5 = load i32, ptr %3, align 4, !tbaa !9
  %6 = load ptr, ptr %2, align 8, !tbaa !439
  %7 = getelementptr inbounds nuw %struct.indegree_slab, ptr %6, i32 0, i32 2
  %8 = load i32, ptr %7, align 8, !tbaa !441
  %9 = icmp ult i32 %5, %8
  br i1 %9, label %10, label %21

10:                                               ; preds = %4
  %11 = load ptr, ptr %2, align 8, !tbaa !439
  %12 = getelementptr inbounds nuw %struct.indegree_slab, ptr %11, i32 0, i32 3
  %13 = load ptr, ptr %12, align 8, !tbaa !442
  %14 = load i32, ptr %3, align 4, !tbaa !9
  %15 = zext i32 %14 to i64
  %16 = getelementptr inbounds nuw ptr, ptr %13, i64 %15
  %17 = load ptr, ptr %16, align 8, !tbaa !250
  call void @free(ptr noundef %17) #12
  br label %18

18:                                               ; preds = %10
  %19 = load i32, ptr %3, align 4, !tbaa !9
  %20 = add i32 %19, 1
  store i32 %20, ptr %3, align 4, !tbaa !9
  br label %4, !llvm.loop !443

21:                                               ; preds = %4
  %22 = load ptr, ptr %2, align 8, !tbaa !439
  %23 = getelementptr inbounds nuw %struct.indegree_slab, ptr %22, i32 0, i32 2
  store i32 0, ptr %23, align 8, !tbaa !441
  br label %24

24:                                               ; preds = %21
  %25 = load ptr, ptr %2, align 8, !tbaa !439
  %26 = getelementptr inbounds nuw %struct.indegree_slab, ptr %25, i32 0, i32 3
  %27 = load ptr, ptr %26, align 8, !tbaa !442
  call void @free(ptr noundef %27) #12
  %28 = load ptr, ptr %2, align 8, !tbaa !439
  %29 = getelementptr inbounds nuw %struct.indegree_slab, ptr %28, i32 0, i32 3
  store ptr null, ptr %29, align 8, !tbaa !442
  br label %30

30:                                               ; preds = %24
  br label %31

31:                                               ; preds = %30
  call void @llvm.lifetime.end.p0(i64 4, ptr %3) #12
  ret void
}

; Function Attrs: nounwind uwtable
define internal void @release_revisions_topo_walk_info(ptr noundef %0) #0 {
  %2 = alloca ptr, align 8
  store ptr %0, ptr %2, align 8, !tbaa !317
  %3 = load ptr, ptr %2, align 8, !tbaa !317
  %4 = icmp ne ptr %3, null
  br i1 %4, label %6, label %5

5:                                                ; preds = %1
  br label %18

6:                                                ; preds = %1
  %7 = load ptr, ptr %2, align 8, !tbaa !317
  %8 = getelementptr inbounds nuw %struct.topo_walk_info, ptr %7, i32 0, i32 1
  call void @clear_prio_queue(ptr noundef %8)
  %9 = load ptr, ptr %2, align 8, !tbaa !317
  %10 = getelementptr inbounds nuw %struct.topo_walk_info, ptr %9, i32 0, i32 2
  call void @clear_prio_queue(ptr noundef %10)
  %11 = load ptr, ptr %2, align 8, !tbaa !317
  %12 = getelementptr inbounds nuw %struct.topo_walk_info, ptr %11, i32 0, i32 3
  call void @clear_prio_queue(ptr noundef %12)
  %13 = load ptr, ptr %2, align 8, !tbaa !317
  %14 = getelementptr inbounds nuw %struct.topo_walk_info, ptr %13, i32 0, i32 4
  call void @clear_indegree_slab(ptr noundef %14)
  %15 = load ptr, ptr %2, align 8, !tbaa !317
  %16 = getelementptr inbounds nuw %struct.topo_walk_info, ptr %15, i32 0, i32 5
  call void @clear_author_date_slab(ptr noundef %16)
  %17 = load ptr, ptr %2, align 8, !tbaa !317
  call void @free(ptr noundef %17) #12
  br label %18

18:                                               ; preds = %6, %5
  ret void
}