; Function Attrs: nounwind uwtable
define internal fastcc void @release_revisions_topo_walk_info(ptr noundef %0) unnamed_addr #2 {
  %.not = icmp eq ptr %0, null
  br i1 %.not, label %30, label %2

2:                                                ; preds = %1
  %3 = getelementptr inbounds nuw i8, ptr %0, i64 8
  tail call void @clear_prio_queue(ptr noundef nonnull %3) #26
  %4 = getelementptr inbounds nuw i8, ptr %0, i64 56
  tail call void @clear_prio_queue(ptr noundef nonnull %4) #26
  %5 = getelementptr inbounds nuw i8, ptr %0, i64 104
  tail call void @clear_prio_queue(ptr noundef nonnull %5) #26
  %6 = getelementptr inbounds nuw i8, ptr %0, i64 160
  %7 = load i32, ptr %6, align 8, !tbaa !279
  %.not.i = icmp eq i32 %7, 0
  br i1 %.not.i, label %clear_indegree_slab.exit, label %.lr.ph.i

.lr.ph.i:                                         ; preds = %2
  %8 = getelementptr inbounds nuw i8, ptr %0, i64 168
  br label %9

9:                                                ; preds = %9, %.lr.ph.i
  %indvars.iv.i = phi i64 [ 0, %.lr.ph.i ], [ %indvars.iv.next.i, %9 ]
  %10 = load ptr, ptr %8, align 8, !tbaa !282
  %11 = getelementptr inbounds nuw ptr, ptr %10, i64 %indvars.iv.i
  %12 = load ptr, ptr %11, align 8, !tbaa !283
  tail call void @free(ptr noundef %12) #26
  %indvars.iv.next.i = add nuw nsw i64 %indvars.iv.i, 1
  %13 = load i32, ptr %6, align 8, !tbaa !279
  %14 = zext i32 %13 to i64
  %15 = icmp samesign ult i64 %indvars.iv.next.i, %14
  br i1 %15, label %9, label %clear_indegree_slab.exit, !llvm.loop !284

clear_indegree_slab.exit:                         ; preds = %9, %2
  store i32 0, ptr %6, align 8, !tbaa !279
  %16 = getelementptr inbounds nuw i8, ptr %0, i64 168
  %17 = load ptr, ptr %16, align 8, !tbaa !282
  tail call void @free(ptr noundef %17) #26
  store ptr null, ptr %16, align 8, !tbaa !282
  %18 = getelementptr inbounds nuw i8, ptr %0, i64 184
  %19 = load i32, ptr %18, align 8, !tbaa !285
  %.not.i7 = icmp eq i32 %19, 0
  br i1 %.not.i7, label %clear_author_date_slab.exit, label %.lr.ph.i8

.lr.ph.i8:                                        ; preds = %clear_indegree_slab.exit
  %20 = getelementptr inbounds nuw i8, ptr %0, i64 192
  br label %21

21:                                               ; preds = %21, %.lr.ph.i8
  %indvars.iv.i9 = phi i64 [ 0, %.lr.ph.i8 ], [ %indvars.iv.next.i10, %21 ]
  %22 = load ptr, ptr %20, align 8, !tbaa !288
  %23 = getelementptr inbounds nuw ptr, ptr %22, i64 %indvars.iv.i9
  %24 = load ptr, ptr %23, align 8, !tbaa !289
  tail call void @free(ptr noundef %24) #26
  %indvars.iv.next.i10 = add nuw nsw i64 %indvars.iv.i9, 1
  %25 = load i32, ptr %18, align 8, !tbaa !285
  %26 = zext i32 %25 to i64
  %27 = icmp samesign ult i64 %indvars.iv.next.i10, %26
  br i1 %27, label %21, label %clear_author_date_slab.exit, !llvm.loop !291

clear_author_date_slab.exit:                      ; preds = %21, %clear_indegree_slab.exit
  store i32 0, ptr %18, align 8, !tbaa !285
  %28 = getelementptr inbounds nuw i8, ptr %0, i64 192
  %29 = load ptr, ptr %28, align 8, !tbaa !288
  tail call void @free(ptr noundef %29) #26
  tail call void @free(ptr noundef nonnull %0) #26
  br label %30

30:                                               ; preds = %1, %clear_author_date_slab.exit
  ret void
}